; Function Attrs: nounwind uwtable
define dso_local noundef ptr @expr_access_inline_member(ptr noundef %0, ptr nocapture noundef readonly %1) local_unnamed_addr #0 {
  %3 = getelementptr inbounds i8, ptr %0, i64 8
  %4 = load i64, ptr %3, align 8
  %5 = tail call ptr @expr_new(i32 noundef 1, i64 %4) #13
  %6 = getelementptr inbounds i8, ptr %5, i64 16
  %7 = load i16, ptr %6, align 8
  %8 = and i16 %7, -3841
  %9 = or disjoint i16 %8, 512
  store i16 %9, ptr %6, align 8
  %10 = getelementptr inbounds i8, ptr %5, i64 24
  store ptr %0, ptr %10, align 8
  %11 = getelementptr inbounds i8, ptr %1, i64 104
  %12 = load ptr, ptr %11, align 8
  %13 = load ptr, ptr %12, align 8
  %14 = getelementptr inbounds i8, ptr %5, i64 32
  store ptr %13, ptr %14, align 8
  %15 = getelementptr inbounds i8, ptr %13, i64 72
  %16 = load ptr, ptr %15, align 8
  store ptr %16, ptr %5, align 8
  ret ptr %5
}